target datalayout = "e-m:e-p270:32:32-p271:32:32-p272:64:64-i64:64-i128:128-f80:128-n8:16:32:64-S128"
target triple = "x86_64-unknown-linux-gnu"

%"class.std::__shared_count" = type { ptr }
%"class.boost::intrusive_ptr" = type { ptr }
%class.anon.110 = type { ptr, ptr, ptr, ptr, ptr, ptr, ptr }
%"class.std::vector.47" = type { %"struct.std::_Vector_base.48" }
%"struct.std::_Vector_base.48" = type { %"struct.std::_Vector_base<unsigned long, std::allocator<unsigned long>>::_Vector_impl" }
%"struct.std::_Vector_base<unsigned long, std::allocator<unsigned long>>::_Vector_impl" = type { %"struct.std::_Vector_base<unsigned long, std::allocator<unsigned long>>::_Vector_impl_data" }
%"struct.std::_Vector_base<unsigned long, std::allocator<unsigned long>>::_Vector_impl_data" = type { ptr, ptr, ptr }
%"class.facebook::velox::DecodedVector" = type { i32, ptr, ptr, ptr, %"class.std::optional.92", ptr, i8, i8, i8, i8, i8, i32, %"class.std::vector.100", %"class.std::vector.47" }
%"class.std::optional.92" = type { %"struct.std::_Optional_base.93" }
%"struct.std::_Optional_base.93" = type { %"struct.std::_Optional_payload.95" }
%"struct.std::_Optional_payload.95" = type { %"struct.std::_Optional_payload_base.base.97", [7 x i8] }
%"struct.std::_Optional_payload_base.base.97" = type <{ %"union.std::_Optional_payload_base<const unsigned long *>::_Storage", i8 }>
%"union.std::_Optional_payload_base<const unsigned long *>::_Storage" = type { ptr }
%"class.std::vector.100" = type { %"struct.std::_Vector_base.101" }
%"struct.std::_Vector_base.101" = type { %"struct.std::_Vector_base<int, std::allocator<int>>::_Vector_impl" }
%"struct.std::_Vector_base<int, std::allocator<int>>::_Vector_impl" = type { %"struct.std::_Vector_base<int, std::allocator<int>>::_Vector_impl_data" }
%"struct.std::_Vector_base<int, std::allocator<int>>::_Vector_impl_data" = type { ptr, ptr, ptr }
%"struct.facebook::velox::ArrayVectorBase" = type { %"class.facebook::velox::BaseVector.base", %"class.boost::intrusive_ptr", ptr, %"class.boost::intrusive_ptr", ptr }
%"class.facebook::velox::BaseVector.base" = type <{ ptr, %"class.std::shared_ptr.81", i8, [3 x i8], i32, %"class.boost::intrusive_ptr", ptr, ptr, i32, %"class.std::optional.84", %"class.std::optional.84", %"class.std::optional.84", %"class.std::optional.84", i32, i8, i8, i8 }>
%"class.std::shared_ptr.81" = type { %"class.std::__shared_ptr.82" }
%"class.std::__shared_ptr.82" = type { ptr, %"class.std::__shared_count" }
%"class.std::optional.84" = type { %"struct.std::_Optional_base.85" }
%"struct.std::_Optional_base.85" = type { %"struct.std::_Optional_payload.87" }
%"struct.std::_Optional_payload.87" = type { %"struct.std::_Optional_payload_base.base.89", [3 x i8] }
%"struct.std::_Optional_payload_base.base.89" = type <{ %"union.std::_Optional_payload_base<int>::_Storage", i8 }>
%"union.std::_Optional_payload_base<int>::_Storage" = type { i32 }

; Function Attrs: mustprogress nounwind uwtable
define linkonce_odr void @_ZSt4iotaIPiiEvT_S1_T0_(ptr noundef %__first, ptr noundef %__last, i32 noundef %__value) #2 comdat {
entry:
  %__first.addr = alloca ptr, align 8
  %__last.addr = alloca ptr, align 8
  %__value.addr = alloca i32, align 4
  store ptr %__first, ptr %__first.addr, align 8
  store ptr %__last, ptr %__last.addr, align 8
  store i32 %__value, ptr %__value.addr, align 4
  br label %for.cond

for.cond:                                         ; preds = %for.inc, %entry
  %0 = load ptr, ptr %__first.addr, align 8
  %1 = load ptr, ptr %__last.addr, align 8
  %cmp = icmp ne ptr %0, %1
  br i1 %cmp, label %for.body, label %for.end

for.body:                                         ; preds = %for.cond
  %2 = load i32, ptr %__value.addr, align 4
  %3 = load ptr, ptr %__first.addr, align 8
  store i32 %2, ptr %3, align 4
  %4 = load i32, ptr %__value.addr, align 4
  %inc = add nsw i32 %4, 1
  store i32 %inc, ptr %__value.addr, align 4
  br label %for.inc

for.inc:                                          ; preds = %for.body
  %5 = load ptr, ptr %__first.addr, align 8
  %incdec.ptr = getelementptr inbounds i32, ptr %5, i32 1
  store ptr %incdec.ptr, ptr %__first.addr, align 8
  br label %for.cond, !llvm.loop !30

for.end:                                          ; preds = %for.cond
  ret void
}

; Function Attrs: mustprogress nounwind uwtable
define linkonce_odr noundef i32 @_ZNK8facebook5velox15ArrayVectorBase8offsetAtEi(ptr noundef nonnull align 8 dereferenceable(136) %this, i32 noundef %index) #2 comdat align 2 {
entry:
  %this.addr = alloca ptr, align 8
  %index.addr = alloca i32, align 4
  store ptr %this, ptr %this.addr, align 8
  store i32 %index, ptr %index.addr, align 4
  %this1 = load ptr, ptr %this.addr, align 8
  %rawOffsets_ = getelementptr inbounds %"struct.facebook::velox::ArrayVectorBase", ptr %this1, i32 0, i32 2
  %0 = load ptr, ptr %rawOffsets_, align 8
  %1 = load i32, ptr %index.addr, align 4
  %idxprom = sext i32 %1 to i64
  %arrayidx = getelementptr inbounds i32, ptr %0, i64 %idxprom
  %2 = load i32, ptr %arrayidx, align 4
  ret i32 %2
}

; Function Attrs: mustprogress nounwind uwtable
define linkonce_odr noundef i32 @_ZNK8facebook5velox15ArrayVectorBase6sizeAtEi(ptr noundef nonnull align 8 dereferenceable(136) %this, i32 noundef %index) #2 comdat align 2 {
entry:
  %this.addr = alloca ptr, align 8
  %index.addr = alloca i32, align 4
  store ptr %this, ptr %this.addr, align 8
  store i32 %index, ptr %index.addr, align 4
  %this1 = load ptr, ptr %this.addr, align 8
  %rawSizes_ = getelementptr inbounds %"struct.facebook::velox::ArrayVectorBase", ptr %this1, i32 0, i32 4
  %0 = load ptr, ptr %rawSizes_, align 8
  %1 = load i32, ptr %index.addr, align 4
  %idxprom = sext i32 %1 to i64
  %arrayidx = getelementptr inbounds i32, ptr %0, i64 %idxprom
  %2 = load i32, ptr %arrayidx, align 4
  ret i32 %2
}

; Function Attrs: mustprogress nounwind uwtable
define linkonce_odr noundef i32 @_ZNK8facebook5velox13DecodedVector5indexEi(ptr noundef nonnull align 8 dereferenceable(120) %this, i32 noundef %idx) #2 comdat align 2 {
entry:
  %retval = alloca i32, align 4
  %this.addr = alloca ptr, align 8
  %idx.addr = alloca i32, align 4
  store ptr %this, ptr %this.addr, align 8
  store i32 %idx, ptr %idx.addr, align 4
  %this1 = load ptr, ptr %this.addr, align 8
  %isIdentityMapping_ = getelementptr inbounds %"class.facebook::velox::DecodedVector", ptr %this1, i32 0, i32 8
  %0 = load i8, ptr %isIdentityMapping_, align 2
  %tobool = trunc i8 %0 to i1
  br i1 %tobool, label %if.then, label %if.end

if.then:                                          ; preds = %entry
  %1 = load i32, ptr %idx.addr, align 4
  store i32 %1, ptr %retval, align 4
  br label %return

if.end:                                           ; preds = %entry
  %isConstantMapping_ = getelementptr inbounds %"class.facebook::velox::DecodedVector", ptr %this1, i32 0, i32 9
  %2 = load i8, ptr %isConstantMapping_, align 1
  %tobool2 = trunc i8 %2 to i1
  br i1 %tobool2, label %if.then3, label %if.end4

if.then3:                                         ; preds = %if.end
  %constantIndex_ = getelementptr inbounds %"class.facebook::velox::DecodedVector", ptr %this1, i32 0, i32 11
  %3 = load i32, ptr %constantIndex_, align 8
  store i32 %3, ptr %retval, align 4
  br label %return

if.end4:                                          ; preds = %if.end
  %indices_ = getelementptr inbounds %"class.facebook::velox::DecodedVector", ptr %this1, i32 0, i32 1
  %4 = load ptr, ptr %indices_, align 8
  %5 = load i32, ptr %idx.addr, align 4
  %idxprom = sext i32 %5 to i64
  %arrayidx = getelementptr inbounds i32, ptr %4, i64 %idxprom
  %6 = load i32, ptr %arrayidx, align 4
  store i32 %6, ptr %retval, align 4
  br label %return

return:                                           ; preds = %if.end4, %if.then3, %if.then
  %7 = load i32, ptr %retval, align 4
  ret i32 %7
}

; Function Attrs: mustprogress uwtable
define internal void @_ZZNK8facebook5velox9functions12_GLOBAL__N_120ArrayShuffleFunction5applyERKNS0_17SelectivityVectorERSt6vectorISt10shared_ptrINS0_10BaseVectorEESaISA_EERKS8_IKNS0_4TypeEERNS0_4exec7EvalCtxERSA_ENKUlT_E0_clIiEEDaSN_(ptr noundef nonnull align 8 dereferenceable(56) %this, i32 noundef %row) #0 align 2 {
entry:
  %this.addr = alloca ptr, align 8
  %row.addr = alloca i32, align 4
  %arrayRow = alloca i32, align 4
  %size = alloca i32, align 4
  %offset = alloca i32, align 4
  store ptr %this, ptr %this.addr, align 8
  store i32 %row, ptr %row.addr, align 4
  %this1 = load ptr, ptr %this.addr, align 8
  %0 = getelementptr inbounds %class.anon.110, ptr %this1, i32 0, i32 0
  %1 = load ptr, ptr %0, align 8
  %2 = load ptr, ptr %1, align 8
  %3 = load i32, ptr %row.addr, align 4
  %call = call noundef i32 @_ZNK8facebook5velox13DecodedVector5indexEi(ptr noundef nonnull align 8 dereferenceable(120) %2, i32 noundef %3)
  store i32 %call, ptr %arrayRow, align 4
  %4 = getelementptr inbounds %class.anon.110, ptr %this1, i32 0, i32 1
  %5 = load ptr, ptr %4, align 8
  %6 = load ptr, ptr %5, align 8
  %7 = load i32, ptr %arrayRow, align 4
  %call2 = call noundef i32 @_ZNK8facebook5velox15ArrayVectorBase6sizeAtEi(ptr noundef nonnull align 8 dereferenceable(136) %6, i32 noundef %7)
  store i32 %call2, ptr %size, align 4
  %8 = getelementptr inbounds %class.anon.110, ptr %this1, i32 0, i32 1
  %9 = load ptr, ptr %8, align 8
  %10 = load ptr, ptr %9, align 8
  %11 = load i32, ptr %arrayRow, align 4
  %call3 = call noundef i32 @_ZNK8facebook5velox15ArrayVectorBase8offsetAtEi(ptr noundef nonnull align 8 dereferenceable(136) %10, i32 noundef %11)
  store i32 %call3, ptr %offset, align 4
  %12 = getelementptr inbounds %class.anon.110, ptr %this1, i32 0, i32 2
  %13 = load ptr, ptr %12, align 8
  %14 = load ptr, ptr %13, align 8
  %15 = getelementptr inbounds %class.anon.110, ptr %this1, i32 0, i32 3
  %16 = load ptr, ptr %15, align 8
  %17 = load i32, ptr %16, align 4
  %idx.ext = sext i32 %17 to i64
  %add.ptr = getelementptr inbounds i32, ptr %14, i64 %idx.ext
  %18 = getelementptr inbounds %class.anon.110, ptr %this1, i32 0, i32 2
  %19 = load ptr, ptr %18, align 8
  %20 = load ptr, ptr %19, align 8
  %21 = getelementptr inbounds %class.anon.110, ptr %this1, i32 0, i32 3
  %22 = load ptr, ptr %21, align 8
  %23 = load i32, ptr %22, align 4
  %idx.ext4 = sext i32 %23 to i64
  %add.ptr5 = getelementptr inbounds i32, ptr %20, i64 %idx.ext4
  %24 = load i32, ptr %size, align 4
  %idx.ext6 = sext i32 %24 to i64
  %add.ptr7 = getelementptr inbounds i32, ptr %add.ptr5, i64 %idx.ext6
  %25 = load i32, ptr %offset, align 4
  call void @_ZSt4iotaIPiiEvT_S1_T0_(ptr noundef %add.ptr, ptr noundef %add.ptr7, i32 noundef %25)
  %26 = getelementptr inbounds %class.anon.110, ptr %this1, i32 0, i32 2
  %27 = load ptr, ptr %26, align 8
  %28 = load ptr, ptr %27, align 8
  %29 = getelementptr inbounds %class.anon.110, ptr %this1, i32 0, i32 3
  %30 = load ptr, ptr %29, align 8
  %31 = load i32, ptr %30, align 4
  %idx.ext8 = sext i32 %31 to i64
  %add.ptr9 = getelementptr inbounds i32, ptr %28, i64 %idx.ext8
  %32 = getelementptr inbounds %class.anon.110, ptr %this1, i32 0, i32 2
  %33 = load ptr, ptr %32, align 8
  %34 = load ptr, ptr %33, align 8
  %35 = getelementptr inbounds %class.anon.110, ptr %this1, i32 0, i32 3
  %36 = load ptr, ptr %35, align 8
  %37 = load i32, ptr %36, align 4
  %idx.ext10 = sext i32 %37 to i64
  %add.ptr11 = getelementptr inbounds i32, ptr %34, i64 %idx.ext10
  %38 = load i32, ptr %size, align 4
  %idx.ext12 = sext i32 %38 to i64
  %add.ptr13 = getelementptr inbounds i32, ptr %add.ptr11, i64 %idx.ext12
  %39 = getelementptr inbounds %class.anon.110, ptr %this1, i32 0, i32 4
  %40 = load ptr, ptr %39, align 8
  call void @_ZSt7shuffleIPiRSt23mersenne_twister_engineImLm32ELm624ELm397ELm31ELm2567483615ELm11ELm4294967295ELm7ELm2636928640ELm15ELm4022730752ELm18ELm1812433253EEEvT_S4_OT0_(ptr noundef %add.ptr9, ptr noundef %add.ptr13, ptr noundef nonnull align 8 dereferenceable(5000) %40)
  %41 = load i32, ptr %size, align 4
  %42 = getelementptr inbounds %class.anon.110, ptr %this1, i32 0, i32 5
  %43 = load ptr, ptr %42, align 8
  %44 = load ptr, ptr %43, align 8
  %45 = load i32, ptr %row.addr, align 4
  %idxprom = sext i32 %45 to i64
  %arrayidx = getelementptr inbounds i32, ptr %44, i64 %idxprom
  store i32 %41, ptr %arrayidx, align 4
  %46 = getelementptr inbounds %class.anon.110, ptr %this1, i32 0, i32 3
  %47 = load ptr, ptr %46, align 8
  %48 = load i32, ptr %47, align 4
  %49 = getelementptr inbounds %class.anon.110, ptr %this1, i32 0, i32 6
  %50 = load ptr, ptr %49, align 8
  %51 = load ptr, ptr %50, align 8
  %52 = load i32, ptr %row.addr, align 4
  %idxprom14 = sext i32 %52 to i64
  %arrayidx15 = getelementptr inbounds i32, ptr %51, i64 %idxprom14
  store i32 %48, ptr %arrayidx15, align 4
  %53 = load i32, ptr %size, align 4
  %54 = getelementptr inbounds %class.anon.110, ptr %this1, i32 0, i32 3
  %55 = load ptr, ptr %54, align 8
  %56 = load i32, ptr %55, align 4
  %add = add nsw i32 %56, %53
  store i32 %add, ptr %55, align 4
  ret void
}