; Function Attrs: mustprogress uwtable
define internal fastcc void @_ZZNK8facebook5velox9functions12_GLOBAL__N_120ArrayShuffleFunction5applyERKNS0_17SelectivityVectorERSt6vectorISt10shared_ptrINS0_10BaseVectorEESaISA_EERKS8_IKNS0_4TypeEERNS0_4exec7EvalCtxERSA_ENKUlT_E0_clIiEEDaSN_(ptr nocapture noundef nonnull readonly align 8 dereferenceable(56) %this, i32 noundef %row) unnamed_addr #0 align 2 {
entry:
  %0 = load ptr, ptr %this, align 8
  %1 = load ptr, ptr %0, align 8
  %isIdentityMapping_.i = getelementptr inbounds i8, ptr %1, i64 58
  %2 = load i8, ptr %isIdentityMapping_.i, align 2
  %3 = and i8 %2, 1
  %tobool.not.i = icmp eq i8 %3, 0
  br i1 %tobool.not.i, label %if.end.i, label %_ZNK8facebook5velox13DecodedVector5indexEi.exit

if.end.i:                                         ; preds = %entry
  %isConstantMapping_.i = getelementptr inbounds i8, ptr %1, i64 59
  %4 = load i8, ptr %isConstantMapping_.i, align 1
  %5 = and i8 %4, 1
  %tobool2.not.i = icmp eq i8 %5, 0
  br i1 %tobool2.not.i, label %if.end4.i, label %if.then3.i

if.then3.i:                                       ; preds = %if.end.i
  %constantIndex_.i = getelementptr inbounds i8, ptr %1, i64 64
  %6 = load i32, ptr %constantIndex_.i, align 8
  br label %_ZNK8facebook5velox13DecodedVector5indexEi.exit

if.end4.i:                                        ; preds = %if.end.i
  %indices_.i = getelementptr inbounds i8, ptr %1, i64 8
  %7 = load ptr, ptr %indices_.i, align 8
  %idxprom.i = sext i32 %row to i64
  %arrayidx.i = getelementptr inbounds i32, ptr %7, i64 %idxprom.i
  %8 = load i32, ptr %arrayidx.i, align 4
  br label %_ZNK8facebook5velox13DecodedVector5indexEi.exit

_ZNK8facebook5velox13DecodedVector5indexEi.exit:  ; preds = %entry, %if.then3.i, %if.end4.i
  %retval.0.i = phi i32 [ %6, %if.then3.i ], [ %8, %if.end4.i ], [ %row, %entry ]
  %9 = getelementptr inbounds i8, ptr %this, i64 8
  %10 = load ptr, ptr %9, align 8
  %11 = load ptr, ptr %10, align 8
  %rawSizes_.i = getelementptr inbounds i8, ptr %11, i64 128
  %12 = load ptr, ptr %rawSizes_.i, align 8
  %idxprom.i7 = sext i32 %retval.0.i to i64
  %arrayidx.i8 = getelementptr inbounds i32, ptr %12, i64 %idxprom.i7
  %13 = load i32, ptr %arrayidx.i8, align 4
  %14 = getelementptr inbounds i8, ptr %this, i64 16
  %15 = load ptr, ptr %14, align 8
  %16 = load ptr, ptr %15, align 8
  %17 = getelementptr inbounds i8, ptr %this, i64 24
  %18 = load ptr, ptr %17, align 8
  %19 = load i32, ptr %18, align 4
  %idx.ext = sext i32 %19 to i64
  %add.ptr = getelementptr inbounds i32, ptr %16, i64 %idx.ext
  %idx.ext6 = sext i32 %13 to i64
  %add.ptr7 = getelementptr inbounds i32, ptr %add.ptr, i64 %idx.ext6
  %cmp.not4.i = icmp eq i32 %13, 0
  br i1 %cmp.not4.i, label %_ZSt4iotaIPiiEvT_S1_T0_.exit, label %for.body.i.preheader

for.body.i.preheader:                             ; preds = %_ZNK8facebook5velox13DecodedVector5indexEi.exit
  %rawOffsets_.i = getelementptr inbounds i8, ptr %11, i64 112
  %20 = load ptr, ptr %rawOffsets_.i, align 8
  %arrayidx.i10 = getelementptr inbounds i32, ptr %20, i64 %idxprom.i7
  %21 = load i32, ptr %arrayidx.i10, align 4
  br label %for.body.i

for.body.i:                                       ; preds = %for.body.i.preheader, %for.body.i
  %__value.addr.06.i = phi i32 [ %inc.i, %for.body.i ], [ %21, %for.body.i.preheader ]
  %__first.addr.05.i = phi ptr [ %incdec.ptr.i, %for.body.i ], [ %add.ptr, %for.body.i.preheader ]
  store i32 %__value.addr.06.i, ptr %__first.addr.05.i, align 4
  %inc.i = add nsw i32 %__value.addr.06.i, 1
  %incdec.ptr.i = getelementptr inbounds i8, ptr %__first.addr.05.i, i64 4
  %cmp.not.i = icmp eq ptr %incdec.ptr.i, %add.ptr7
  br i1 %cmp.not.i, label %_ZSt4iotaIPiiEvT_S1_T0_.exit.loopexit, label %for.body.i, !llvm.loop !51

_ZSt4iotaIPiiEvT_S1_T0_.exit.loopexit:            ; preds = %for.body.i
  %.pre = load ptr, ptr %14, align 8
  %.pre11 = load ptr, ptr %.pre, align 8
  %.pre12 = load ptr, ptr %17, align 8
  %.pre13 = load i32, ptr %.pre12, align 4
  %.pre14 = sext i32 %.pre13 to i64
  br label %_ZSt4iotaIPiiEvT_S1_T0_.exit

_ZSt4iotaIPiiEvT_S1_T0_.exit:                     ; preds = %_ZSt4iotaIPiiEvT_S1_T0_.exit.loopexit, %_ZNK8facebook5velox13DecodedVector5indexEi.exit
  %idx.ext8.pre-phi = phi i64 [ %.pre14, %_ZSt4iotaIPiiEvT_S1_T0_.exit.loopexit ], [ %idx.ext, %_ZNK8facebook5velox13DecodedVector5indexEi.exit ]
  %22 = phi ptr [ %.pre11, %_ZSt4iotaIPiiEvT_S1_T0_.exit.loopexit ], [ %16, %_ZNK8facebook5velox13DecodedVector5indexEi.exit ]
  %add.ptr9 = getelementptr inbounds i32, ptr %22, i64 %idx.ext8.pre-phi
  %add.ptr13 = getelementptr inbounds i32, ptr %add.ptr9, i64 %idx.ext6
  %23 = getelementptr inbounds i8, ptr %this, i64 32
  %24 = load ptr, ptr %23, align 8
  tail call void @_ZSt7shuffleIPiRSt23mersenne_twister_engineImLm32ELm624ELm397ELm31ELm2567483615ELm11ELm4294967295ELm7ELm2636928640ELm15ELm4022730752ELm18ELm1812433253EEEvT_S4_OT0_(ptr noundef %add.ptr9, ptr noundef %add.ptr13, ptr noundef nonnull align 8 dereferenceable(5000) %24)
  %25 = getelementptr inbounds i8, ptr %this, i64 40
  %26 = load ptr, ptr %25, align 8
  %27 = load ptr, ptr %26, align 8
  %idxprom = sext i32 %row to i64
  %arrayidx = getelementptr inbounds i32, ptr %27, i64 %idxprom
  store i32 %13, ptr %arrayidx, align 4
  %28 = load ptr, ptr %17, align 8
  %29 = load i32, ptr %28, align 4
  %30 = getelementptr inbounds i8, ptr %this, i64 48
  %31 = load ptr, ptr %30, align 8
  %32 = load ptr, ptr %31, align 8
  %arrayidx15 = getelementptr inbounds i32, ptr %32, i64 %idxprom
  store i32 %29, ptr %arrayidx15, align 4
  %33 = load ptr, ptr %17, align 8
  %34 = load i32, ptr %33, align 4
  %add = add nsw i32 %34, %13
  store i32 %add, ptr %33, align 4
  ret void
}